target datalayout = "e-m:e-p270:32:32-p271:32:32-p272:64:64-i64:64-i128:128-f80:128-n8:16:32:64-S128"
target triple = "x86_64-pc-linux-gnu"

%struct.ItemPointerData = type { %struct.BlockIdData, i16 }
%struct.BlockIdData = type { i16, i16 }
%struct.HeapTupleData = type { i32, %struct.ItemPointerData, i32, ptr }
%struct.ScanKeyData = type { i32, i16, i16, i32, i32, %struct.FmgrInfo, i64 }
%struct.FmgrInfo = type { ptr, i32, i16, i8, i8, i8, ptr, ptr, ptr }
%struct.HeapTupleHeaderData = type { %union.anon.0, %struct.ItemPointerData, i16, i16, i8, [0 x i8] }
%union.anon.0 = type { %struct.HeapTupleFields }
%struct.HeapTupleFields = type { i32, i32, %union.anon.1 }
%union.anon.1 = type { i32 }
%struct.FormData_pg_statistic = type { i32, i16, i8, float, i32, float, i16, i16, i16, i16, i16, i32, i32, i32, i32, i32, i32, i32, i32, i32, i32 }

; Function Attrs: inlinehint nounwind uwtable
define internal ptr @GETSTRUCT(ptr noundef %0) #5 {
  %2 = alloca ptr, align 8
  store ptr %0, ptr %2, align 8
  %3 = load ptr, ptr %2, align 8
  %4 = getelementptr inbounds nuw %struct.HeapTupleData, ptr %3, i32 0, i32 3
  %5 = load ptr, ptr %4, align 8
  %6 = load ptr, ptr %2, align 8
  %7 = getelementptr inbounds nuw %struct.HeapTupleData, ptr %6, i32 0, i32 3
  %8 = load ptr, ptr %7, align 8
  %9 = getelementptr inbounds nuw %struct.HeapTupleHeaderData, ptr %8, i32 0, i32 4
  %10 = load i8, ptr %9, align 2
  %11 = zext i8 %10 to i32
  %12 = sext i32 %11 to i64
  %13 = getelementptr inbounds i8, ptr %5, i64 %12
  ret ptr %13
}

; Function Attrs: inlinehint nounwind uwtable
define internal i64 @ObjectIdGetDatum(i32 noundef %0) #5 {
  %2 = alloca i32, align 4
  store i32 %0, ptr %2, align 4
  %3 = load i32, ptr %2, align 4
  %4 = zext i32 %3 to i64
  ret i64 %4
}

; Function Attrs: nounwind uwtable
define dso_local void @CopyStatistics(i32 noundef %0, i32 noundef %1) #0 {
  %3 = alloca i32, align 4
  %4 = alloca i32, align 4
  %5 = alloca ptr, align 8
  %6 = alloca ptr, align 8
  %7 = alloca [1 x %struct.ScanKeyData], align 16
  %8 = alloca ptr, align 8
  %9 = alloca ptr, align 8
  %10 = alloca ptr, align 8
  store i32 %0, ptr %3, align 4
  store i32 %1, ptr %4, align 4
  call void @llvm.lifetime.start.p0(i64 8, ptr %5) #10
  call void @llvm.lifetime.start.p0(i64 8, ptr %6) #10
  call void @llvm.lifetime.start.p0(i64 72, ptr %7) #10
  call void @llvm.lifetime.start.p0(i64 8, ptr %8) #10
  call void @llvm.lifetime.start.p0(i64 8, ptr %9) #10
  store ptr null, ptr %9, align 8
  %11 = call ptr @table_open(i32 noundef 2619, i32 noundef 3)
  store ptr %11, ptr %8, align 8
  %12 = getelementptr inbounds [1 x %struct.ScanKeyData], ptr %7, i64 0, i64 0
  %13 = load i32, ptr %3, align 4
  %14 = call i64 @ObjectIdGetDatum(i32 noundef %13)
  call void @ScanKeyInit(ptr noundef %12, i16 noundef signext 1, i16 noundef zeroext 3, i32 noundef 184, i64 noundef %14)
  %15 = load ptr, ptr %8, align 8
  %16 = getelementptr inbounds [1 x %struct.ScanKeyData], ptr %7, i64 0, i64 0
  %17 = call ptr @systable_beginscan(ptr noundef %15, i32 noundef 2696, i1 noundef zeroext true, ptr noundef null, i32 noundef 1, ptr noundef %16)
  store ptr %17, ptr %6, align 8
  br label %18

18:                                               ; preds = %35, %2
  %19 = load ptr, ptr %6, align 8
  %20 = call ptr @systable_getnext(ptr noundef %19)
  store ptr %20, ptr %5, align 8
  %21 = icmp ne ptr %20, null
  br i1 %21, label %22, label %40

22:                                               ; preds = %18
  call void @llvm.lifetime.start.p0(i64 8, ptr %10) #10
  %23 = load ptr, ptr %5, align 8
  %24 = call ptr @heap_copytuple(ptr noundef %23)
  store ptr %24, ptr %5, align 8
  %25 = load ptr, ptr %5, align 8
  %26 = call ptr @GETSTRUCT(ptr noundef %25)
  store ptr %26, ptr %10, align 8
  %27 = load i32, ptr %4, align 4
  %28 = load ptr, ptr %10, align 8
  %29 = getelementptr inbounds nuw %struct.FormData_pg_statistic, ptr %28, i32 0, i32 0
  store i32 %27, ptr %29, align 4
  %30 = load ptr, ptr %9, align 8
  %31 = icmp eq ptr %30, null
  br i1 %31, label %32, label %35

32:                                               ; preds = %22
  %33 = load ptr, ptr %8, align 8
  %34 = call ptr @CatalogOpenIndexes(ptr noundef %33)
  store ptr %34, ptr %9, align 8
  br label %35

35:                                               ; preds = %32, %22
  %36 = load ptr, ptr %8, align 8
  %37 = load ptr, ptr %5, align 8
  %38 = load ptr, ptr %9, align 8
  call void @CatalogTupleInsertWithInfo(ptr noundef %36, ptr noundef %37, ptr noundef %38)
  %39 = load ptr, ptr %5, align 8
  call void @heap_freetuple(ptr noundef %39)
  call void @llvm.lifetime.end.p0(i64 8, ptr %10) #10
  br label %18, !llvm.loop !41

40:                                               ; preds = %18
  %41 = load ptr, ptr %6, align 8
  call void @systable_endscan(ptr noundef %41)
  %42 = load ptr, ptr %9, align 8
  %43 = icmp ne ptr %42, null
  br i1 %43, label %44, label %46

44:                                               ; preds = %40
  %45 = load ptr, ptr %9, align 8
  call void @CatalogCloseIndexes(ptr noundef %45)
  br label %46

46:                                               ; preds = %44, %40
  %47 = load ptr, ptr %8, align 8
  call void @table_close(ptr noundef %47, i32 noundef 3)
  call void @llvm.lifetime.end.p0(i64 8, ptr %9) #10
  call void @llvm.lifetime.end.p0(i64 8, ptr %8) #10
  call void @llvm.lifetime.end.p0(i64 72, ptr %7) #10
  call void @llvm.lifetime.end.p0(i64 8, ptr %6) #10
  call void @llvm.lifetime.end.p0(i64 8, ptr %5) #10
  ret void
}