; Function Attrs: nounwind uwtable
define dso_local void @CopyStatistics(i32 noundef %0, i32 noundef %1) local_unnamed_addr #0 {
  %3 = alloca [1 x %struct.ScanKeyData], align 16
  call void @llvm.lifetime.start.p0(i64 72, ptr nonnull %3) #11
  %4 = tail call ptr @table_open(i32 noundef 2619, i32 noundef 3) #11
  %5 = zext i32 %0 to i64
  call void @ScanKeyInit(ptr noundef nonnull %3, i16 noundef signext 1, i16 noundef zeroext 3, i32 noundef 184, i64 noundef %5) #11
  %6 = call ptr @systable_beginscan(ptr noundef %4, i32 noundef 2696, i1 noundef zeroext true, ptr noundef null, i32 noundef 1, ptr noundef nonnull %3) #11
  %7 = call ptr @systable_getnext(ptr noundef %6) #11
  %.not18 = icmp eq ptr %7, null
  br i1 %.not18, label %._crit_edge.thread, label %.lr.ph

._crit_edge.thread:                               ; preds = %2
  call void @systable_endscan(ptr noundef %6) #11
  br label %21

.lr.ph:                                           ; preds = %2, %18
  %8 = phi ptr [ %19, %18 ], [ %7, %2 ]
  %.019 = phi ptr [ %.1, %18 ], [ null, %2 ]
  %9 = call ptr @heap_copytuple(ptr noundef nonnull %8) #11
  %10 = getelementptr i8, ptr %9, i64 16
  %.val = load ptr, ptr %10, align 8
  %11 = getelementptr inbounds nuw i8, ptr %.val, i64 22
  %12 = load i8, ptr %11, align 2
  %13 = zext i8 %12 to i64
  %14 = getelementptr inbounds nuw i8, ptr %.val, i64 %13
  store i32 %1, ptr %14, align 4
  %15 = icmp eq ptr %.019, null
  br i1 %15, label %16, label %18

16:                                               ; preds = %.lr.ph
  %17 = call ptr @CatalogOpenIndexes(ptr noundef %4) #11
  br label %18

18:                                               ; preds = %16, %.lr.ph
  %.1 = phi ptr [ %17, %16 ], [ %.019, %.lr.ph ]
  call void @CatalogTupleInsertWithInfo(ptr noundef %4, ptr noundef nonnull %9, ptr noundef %.1) #11
  call void @heap_freetuple(ptr noundef nonnull %9) #11
  %19 = call ptr @systable_getnext(ptr noundef %6) #11
  %.not = icmp eq ptr %19, null
  br i1 %.not, label %._crit_edge, label %.lr.ph, !llvm.loop !32

._crit_edge:                                      ; preds = %18
  call void @systable_endscan(ptr noundef %6) #11
  %.not17 = icmp eq ptr %.1, null
  br i1 %.not17, label %21, label %20

20:                                               ; preds = %._crit_edge
  call void @CatalogCloseIndexes(ptr noundef nonnull %.1) #11
  br label %21

21:                                               ; preds = %._crit_edge.thread, %20, %._crit_edge
  call void @table_close(ptr noundef %4, i32 noundef 3) #11
  call void @llvm.lifetime.end.p0(i64 72, ptr nonnull %3) #11
  ret void
}